target datalayout = "e-m:e-p270:32:32-p271:32:32-p272:64:64-i64:64-i128:128-f80:128-n8:16:32:64-S128"
target triple = "x86_64-pc-linux-gnu"

; Function Attrs: nounwind uwtable
define void @lv_obj_update_flag(ptr noundef %0, i32 noundef %1, i1 noundef zeroext %2) #0 {
  %4 = alloca ptr, align 8
  %5 = alloca i32, align 4
  %6 = alloca i8, align 1
  store ptr %0, ptr %4, align 8, !tbaa !8
  store i32 %1, ptr %5, align 4, !tbaa !17
  %7 = zext i1 %2 to i8
  store i8 %7, ptr %6, align 1, !tbaa !39
  %8 = load i8, ptr %6, align 1, !tbaa !39, !range !40, !noundef !41
  %9 = trunc i8 %8 to i1
  br i1 %9, label %10, label %13

10:                                               ; preds = %3
  %11 = load ptr, ptr %4, align 8, !tbaa !8
  %12 = load i32, ptr %5, align 4, !tbaa !17
  call void @lv_obj_add_flag(ptr noundef %11, i32 noundef %12)
  br label %16

13:                                               ; preds = %3
  %14 = load ptr, ptr %4, align 8, !tbaa !8
  %15 = load i32, ptr %5, align 4, !tbaa !17
  call void @lv_obj_remove_flag(ptr noundef %14, i32 noundef %15)
  br label %16

16:                                               ; preds = %13, %10
  ret void
}