; Function Attrs: nounwind uwtable
define void @lv_obj_update_flag(ptr noundef %0, i32 noundef %1, i1 noundef zeroext %2) local_unnamed_addr #0 {
  br i1 %2, label %4, label %5

4:                                                ; preds = %3
  tail call void @lv_obj_add_flag(ptr noundef %0, i32 noundef %1)
  br label %6

5:                                                ; preds = %3
  tail call void @lv_obj_remove_flag(ptr noundef %0, i32 noundef %1)
  br label %6

6:                                                ; preds = %5, %4
  ret void
}